target datalayout = "e-m:e-p270:32:32-p271:32:32-p272:64:64-i64:64-i128:128-f80:128-n8:16:32:64-S128"
target triple = "x86_64-pc-linux-gnu"

%"class.std::__cxx11::basic_string" = type { %"struct.std::__cxx11::basic_string<char>::_Alloc_hider", i64, %union.anon }
%"struct.std::__cxx11::basic_string<char>::_Alloc_hider" = type { ptr }
%union.anon = type { i64, [8 x i8] }
%struct.cmGeneratorExpressionDAGChecker = type <{ ptr, ptr, %"class.std::__cxx11::basic_string", %"class.std::map", ptr, %class.cmListFileBacktrace, i32, i8, i8, [2 x i8] }>
%"class.std::map" = type { %"class.std::_Rb_tree" }
%"class.std::_Rb_tree" = type { %"struct.std::_Rb_tree<const cmGeneratorTarget *, std::pair<const cmGeneratorTarget *const, std::set<std::__cxx11::basic_string<char>>>, std::_Select1st<std::pair<const cmGeneratorTarget *const, std::set<std::__cxx11::basic_string<char>>>>, std::less<const cmGeneratorTarget *>>::_Rb_tree_impl" }
%"struct.std::_Rb_tree<const cmGeneratorTarget *, std::pair<const cmGeneratorTarget *const, std::set<std::__cxx11::basic_string<char>>>, std::_Select1st<std::pair<const cmGeneratorTarget *const, std::set<std::__cxx11::basic_string<char>>>>, std::less<const cmGeneratorTarget *>>::_Rb_tree_impl" = type { %"struct.std::_Rb_tree_key_compare", %"struct.std::_Rb_tree_header" }
%"struct.std::_Rb_tree_key_compare" = type { %"struct.std::less" }
%"struct.std::less" = type { i8 }
%"struct.std::_Rb_tree_header" = type { %"struct.std::_Rb_tree_node_base", i64 }
%"struct.std::_Rb_tree_node_base" = type { i32, ptr, ptr, ptr }
%class.cmListFileBacktrace = type { %class.cmConstStack }
%class.cmConstStack = type { %"class.std::shared_ptr" }
%"class.std::shared_ptr" = type { %"class.std::__shared_ptr" }
%"class.std::__shared_ptr" = type { ptr, %"class.std::__shared_count" }
%"class.std::__shared_count" = type { ptr }
%"class.std::basic_string_view" = type { i64, ptr }
%"class.cm::static_string_view" = type { %"class.std::basic_string_view" }

@.str.11 = private unnamed_addr constant [20 x i8] c"INCLUDE_DIRECTORIES\00", align 1
@.str.12 = private unnamed_addr constant [20 x i8] c"COMPILE_DEFINITIONS\00", align 1
@.str.13 = private unnamed_addr constant [16 x i8] c"COMPILE_OPTIONS\00", align 1

; Function Attrs: noreturn nounwind uwtable
define linkonce_odr hidden void @__clang_call_terminate(ptr noundef %0) #9 comdat {
  %2 = call ptr @__cxa_begin_catch(ptr %0) #3
  call void @_ZSt9terminatev() #14
  unreachable
}

; Function Attrs: mustprogress nounwind uwtable
define linkonce_odr dso_local noundef i32 @_ZNSt17basic_string_viewIcSt11char_traitsIcEE10_S_compareEmm(i64 noundef %0, i64 noundef %1) #5 comdat align 2 {
  %3 = alloca i32, align 4
  %4 = alloca i64, align 8
  %5 = alloca i64, align 8
  %6 = alloca i64, align 8
  store i64 %0, ptr %4, align 8
  store i64 %1, ptr %5, align 8
  %7 = load i64, ptr %4, align 8
  %8 = load i64, ptr %5, align 8
  %9 = sub i64 %7, %8
  store i64 %9, ptr %6, align 8
  %10 = load i64, ptr %6, align 8
  %11 = icmp sgt i64 %10, 2147483647
  br i1 %11, label %12, label %13

12:                                               ; preds = %2
  store i32 2147483647, ptr %3, align 4
  br label %20

13:                                               ; preds = %2
  %14 = load i64, ptr %6, align 8
  %15 = icmp slt i64 %14, -2147483648
  br i1 %15, label %16, label %17

16:                                               ; preds = %13
  store i32 -2147483648, ptr %3, align 4
  br label %20

17:                                               ; preds = %13
  %18 = load i64, ptr %6, align 8
  %19 = trunc i64 %18 to i32
  store i32 %19, ptr %3, align 4
  br label %20

20:                                               ; preds = %17, %16, %12
  %21 = load i32, ptr %3, align 4
  ret i32 %21
}

; Function Attrs: mustprogress nounwind uwtable
define linkonce_odr dso_local noundef i32 @_ZNSt11char_traitsIcE7compareEPKcS2_m(ptr noundef %0, ptr noundef %1, i64 noundef %2) #5 comdat align 2 {
  %4 = alloca i32, align 4
  %5 = alloca ptr, align 8
  %6 = alloca ptr, align 8
  %7 = alloca i64, align 8
  store ptr %0, ptr %5, align 8
  store ptr %1, ptr %6, align 8
  store i64 %2, ptr %7, align 8
  %8 = load i64, ptr %7, align 8
  %9 = icmp eq i64 %8, 0
  br i1 %9, label %10, label %11

10:                                               ; preds = %3
  store i32 0, ptr %4, align 4
  br label %16

11:                                               ; preds = %3
  %12 = load ptr, ptr %5, align 8
  %13 = load ptr, ptr %6, align 8
  %14 = load i64, ptr %7, align 8
  %15 = call i32 @memcmp(ptr noundef %12, ptr noundef %13, i64 noundef %14) #3
  store i32 %15, ptr %4, align 4
  br label %16

16:                                               ; preds = %11, %10
  %17 = load i32, ptr %4, align 4
  ret i32 %17
}

; Function Attrs: mustprogress nounwind uwtable
define linkonce_odr dso_local noundef nonnull align 8 dereferenceable(8) ptr @_ZSt3minImERKT_S2_S2_(ptr noundef nonnull align 8 dereferenceable(8) %0, ptr noundef nonnull align 8 dereferenceable(8) %1) #5 comdat {
  %3 = alloca ptr, align 8
  %4 = alloca ptr, align 8
  %5 = alloca ptr, align 8
  store ptr %0, ptr %4, align 8
  store ptr %1, ptr %5, align 8
  %6 = load ptr, ptr %5, align 8
  %7 = load i64, ptr %6, align 8
  %8 = load ptr, ptr %4, align 8
  %9 = load i64, ptr %8, align 8
  %10 = icmp ult i64 %7, %9
  br i1 %10, label %11, label %13

11:                                               ; preds = %2
  %12 = load ptr, ptr %5, align 8
  store ptr %12, ptr %3, align 8
  br label %15

13:                                               ; preds = %2
  %14 = load ptr, ptr %4, align 8
  store ptr %14, ptr %3, align 8
  br label %15

15:                                               ; preds = %13, %11
  %16 = load ptr, ptr %3, align 8
  ret ptr %16
}

; Function Attrs: mustprogress nounwind uwtable
define linkonce_odr dso_local noundef i32 @_ZNKSt17basic_string_viewIcSt11char_traitsIcEE7compareES2_(ptr noundef nonnull align 8 dereferenceable(16) %0, i64 %1, ptr %2) #5 comdat align 2 personality ptr @__gxx_personality_v0 {
  %4 = alloca %"class.std::basic_string_view", align 8
  %5 = alloca ptr, align 8
  %6 = alloca i64, align 8
  %7 = alloca i32, align 4
  %8 = getelementptr inbounds { i64, ptr }, ptr %4, i32 0, i32 0
  store i64 %1, ptr %8, align 8
  %9 = getelementptr inbounds { i64, ptr }, ptr %4, i32 0, i32 1
  store ptr %2, ptr %9, align 8
  store ptr %0, ptr %5, align 8
  %10 = load ptr, ptr %5, align 8
  %11 = getelementptr inbounds %"class.std::basic_string_view", ptr %10, i32 0, i32 0
  %12 = getelementptr inbounds %"class.std::basic_string_view", ptr %4, i32 0, i32 0
  %13 = invoke noundef nonnull align 8 dereferenceable(8) ptr @_ZSt3minImERKT_S2_S2_(ptr noundef nonnull align 8 dereferenceable(8) %11, ptr noundef nonnull align 8 dereferenceable(8) %12)
          to label %14 unwind label %33

14:                                               ; preds = %3
  %15 = load i64, ptr %13, align 8
  store i64 %15, ptr %6, align 8
  %16 = getelementptr inbounds %"class.std::basic_string_view", ptr %10, i32 0, i32 1
  %17 = load ptr, ptr %16, align 8
  %18 = getelementptr inbounds %"class.std::basic_string_view", ptr %4, i32 0, i32 1
  %19 = load ptr, ptr %18, align 8
  %20 = load i64, ptr %6, align 8
  %21 = invoke noundef i32 @_ZNSt11char_traitsIcE7compareEPKcS2_m(ptr noundef %17, ptr noundef %19, i64 noundef %20)
          to label %22 unwind label %33

22:                                               ; preds = %14
  store i32 %21, ptr %7, align 4
  %23 = load i32, ptr %7, align 4
  %24 = icmp eq i32 %23, 0
  br i1 %24, label %25, label %31

25:                                               ; preds = %22
  %26 = getelementptr inbounds %"class.std::basic_string_view", ptr %10, i32 0, i32 0
  %27 = load i64, ptr %26, align 8
  %28 = getelementptr inbounds %"class.std::basic_string_view", ptr %4, i32 0, i32 0
  %29 = load i64, ptr %28, align 8
  %30 = call noundef i32 @_ZNSt17basic_string_viewIcSt11char_traitsIcEE10_S_compareEmm(i64 noundef %27, i64 noundef %29) #3
  store i32 %30, ptr %7, align 4
  br label %31

31:                                               ; preds = %25, %22
  %32 = load i32, ptr %7, align 4
  ret i32 %32

33:                                               ; preds = %14, %3
  %34 = landingpad { ptr, i32 }
          catch ptr null
  %35 = extractvalue { ptr, i32 } %34, 0
  call void @__clang_call_terminate(ptr %35) #14
  unreachable
}

; Function Attrs: mustprogress nounwind uwtable
define linkonce_odr dso_local noundef i64 @_ZNKSt17basic_string_viewIcSt11char_traitsIcEE4sizeEv(ptr noundef nonnull align 8 dereferenceable(16) %0) #5 comdat align 2 {
  %2 = alloca ptr, align 8
  store ptr %0, ptr %2, align 8
  %3 = load ptr, ptr %2, align 8
  %4 = getelementptr inbounds %"class.std::basic_string_view", ptr %3, i32 0, i32 0
  %5 = load i64, ptr %4, align 8
  ret i64 %5
}

; Function Attrs: mustprogress nounwind uwtable
define linkonce_odr dso_local void @_ZN2cm18static_string_viewC2ESt17basic_string_viewIcSt11char_traitsIcEE(ptr noundef nonnull align 8 dereferenceable(16) %0, i64 %1, ptr %2) unnamed_addr #5 comdat align 2 {
  %4 = alloca %"class.std::basic_string_view", align 8
  %5 = alloca ptr, align 8
  %6 = getelementptr inbounds { i64, ptr }, ptr %4, i32 0, i32 0
  store i64 %1, ptr %6, align 8
  %7 = getelementptr inbounds { i64, ptr }, ptr %4, i32 0, i32 1
  store ptr %2, ptr %7, align 8
  store ptr %0, ptr %5, align 8
  %8 = load ptr, ptr %5, align 8
  call void @llvm.memcpy.p0.p0.i64(ptr align 8 %8, ptr align 8 %4, i64 16, i1 false)
  ret void
}

; Function Attrs: mustprogress nounwind uwtable
define linkonce_odr dso_local void @_ZNSt17basic_string_viewIcSt11char_traitsIcEEC2EPKcm(ptr noundef nonnull align 8 dereferenceable(16) %0, ptr noundef %1, i64 noundef %2) unnamed_addr #5 comdat align 2 {
  %4 = alloca ptr, align 8
  %5 = alloca ptr, align 8
  %6 = alloca i64, align 8
  store ptr %0, ptr %4, align 8
  store ptr %1, ptr %5, align 8
  store i64 %2, ptr %6, align 8
  %7 = load ptr, ptr %4, align 8
  %8 = getelementptr inbounds %"class.std::basic_string_view", ptr %7, i32 0, i32 0
  %9 = load i64, ptr %6, align 8
  store i64 %9, ptr %8, align 8
  %10 = getelementptr inbounds %"class.std::basic_string_view", ptr %7, i32 0, i32 1
  %11 = load ptr, ptr %5, align 8
  store ptr %11, ptr %10, align 8
  ret void
}

; Function Attrs: mustprogress nounwind uwtable
define linkonce_odr dso_local noundef zeroext i1 @_ZSteqIcSt11char_traitsIcEEbSt17basic_string_viewIT_T0_ES5_(i64 %0, ptr %1, i64 %2, ptr %3) #5 comdat {
  %5 = alloca %"class.std::basic_string_view", align 8
  %6 = alloca %"class.std::basic_string_view", align 8
  %7 = alloca %"class.std::basic_string_view", align 8
  %8 = getelementptr inbounds { i64, ptr }, ptr %5, i32 0, i32 0
  store i64 %0, ptr %8, align 8
  %9 = getelementptr inbounds { i64, ptr }, ptr %5, i32 0, i32 1
  store ptr %1, ptr %9, align 8
  %10 = getelementptr inbounds { i64, ptr }, ptr %6, i32 0, i32 0
  store i64 %2, ptr %10, align 8
  %11 = getelementptr inbounds { i64, ptr }, ptr %6, i32 0, i32 1
  store ptr %3, ptr %11, align 8
  %12 = call noundef i64 @_ZNKSt17basic_string_viewIcSt11char_traitsIcEE4sizeEv(ptr noundef nonnull align 8 dereferenceable(16) %5) #3
  %13 = call noundef i64 @_ZNKSt17basic_string_viewIcSt11char_traitsIcEE4sizeEv(ptr noundef nonnull align 8 dereferenceable(16) %6) #3
  %14 = icmp eq i64 %12, %13
  br i1 %14, label %15, label %22

15:                                               ; preds = %4
  call void @llvm.memcpy.p0.p0.i64(ptr align 8 %7, ptr align 8 %6, i64 16, i1 false)
  %16 = getelementptr inbounds { i64, ptr }, ptr %7, i32 0, i32 0
  %17 = load i64, ptr %16, align 8
  %18 = getelementptr inbounds { i64, ptr }, ptr %7, i32 0, i32 1
  %19 = load ptr, ptr %18, align 8
  %20 = call noundef i32 @_ZNKSt17basic_string_viewIcSt11char_traitsIcEE7compareES2_(ptr noundef nonnull align 8 dereferenceable(16) %5, i64 %17, ptr %19) #3
  %21 = icmp eq i32 %20, 0
  br label %22

22:                                               ; preds = %15, %4
  %23 = phi i1 [ false, %4 ], [ %21, %15 ]
  ret i1 %23
}

; Function Attrs: mustprogress uwtable
define linkonce_odr dso_local { i64, ptr } @_ZN2cmli2_sEPKcm(ptr noundef %0, i64 noundef %1) #4 comdat {
  %3 = alloca %"class.cm::static_string_view", align 8
  %4 = alloca ptr, align 8
  %5 = alloca i64, align 8
  %6 = alloca %"class.std::basic_string_view", align 8
  store ptr %0, ptr %4, align 8
  store i64 %1, ptr %5, align 8
  %7 = load ptr, ptr %4, align 8
  %8 = load i64, ptr %5, align 8
  call void @_ZNSt17basic_string_viewIcSt11char_traitsIcEEC2EPKcm(ptr noundef nonnull align 8 dereferenceable(16) %6, ptr noundef %7, i64 noundef %8) #3
  %9 = getelementptr inbounds { i64, ptr }, ptr %6, i32 0, i32 0
  %10 = load i64, ptr %9, align 8
  %11 = getelementptr inbounds { i64, ptr }, ptr %6, i32 0, i32 1
  %12 = load ptr, ptr %11, align 8
  call void @_ZN2cm18static_string_viewC2ESt17basic_string_viewIcSt11char_traitsIcEE(ptr noundef nonnull align 8 dereferenceable(16) %3, i64 %10, ptr %12)
  %13 = getelementptr inbounds %"class.cm::static_string_view", ptr %3, i32 0, i32 0
  %14 = load { i64, ptr }, ptr %13, align 8
  ret { i64, ptr } %14
}

; Function Attrs: mustprogress nounwind uwtable
define dso_local noundef ptr @_ZNK31cmGeneratorExpressionDAGChecker3TopEv(ptr noundef nonnull align 8 dereferenceable(126) %0) #5 align 2 {
  %2 = alloca ptr, align 8
  %3 = alloca ptr, align 8
  %4 = alloca ptr, align 8
  store ptr %0, ptr %2, align 8
  %5 = load ptr, ptr %2, align 8
  store ptr %5, ptr %3, align 8
  %6 = getelementptr inbounds %struct.cmGeneratorExpressionDAGChecker, ptr %5, i32 0, i32 0
  %7 = load ptr, ptr %6, align 8
  store ptr %7, ptr %4, align 8
  br label %8

8:                                                ; preds = %11, %1
  %9 = load ptr, ptr %4, align 8
  %10 = icmp ne ptr %9, null
  br i1 %10, label %11, label %16

11:                                               ; preds = %8
  %12 = load ptr, ptr %4, align 8
  store ptr %12, ptr %3, align 8
  %13 = load ptr, ptr %4, align 8
  %14 = getelementptr inbounds %struct.cmGeneratorExpressionDAGChecker, ptr %13, i32 0, i32 0
  %15 = load ptr, ptr %14, align 8
  store ptr %15, ptr %4, align 8
  br label %8, !llvm.loop !5

16:                                               ; preds = %8
  %17 = load ptr, ptr %3, align 8
  ret ptr %17
}

; Function Attrs: mustprogress uwtable
define dso_local noundef zeroext i1 @_ZNK31cmGeneratorExpressionDAGChecker27EvaluatingCompileExpressionEv(ptr noundef nonnull align 8 dereferenceable(126) %0) #4 align 2 {
  %2 = alloca ptr, align 8
  %3 = alloca %"class.std::basic_string_view", align 8
  %4 = alloca %"class.std::basic_string_view", align 8
  %5 = alloca %"class.std::basic_string_view", align 8
  %6 = alloca %"class.cm::static_string_view", align 8
  %7 = alloca %"class.std::basic_string_view", align 8
  %8 = alloca %"class.std::basic_string_view", align 8
  %9 = alloca %"class.cm::static_string_view", align 8
  %10 = alloca %"class.std::basic_string_view", align 8
  %11 = alloca %"class.std::basic_string_view", align 8
  %12 = alloca %"class.cm::static_string_view", align 8
  store ptr %0, ptr %2, align 8
  %13 = load ptr, ptr %2, align 8
  %14 = call noundef ptr @_ZNK31cmGeneratorExpressionDAGChecker3TopEv(ptr noundef nonnull align 8 dereferenceable(126) %13)
  %15 = getelementptr inbounds %struct.cmGeneratorExpressionDAGChecker, ptr %14, i32 0, i32 2
  %16 = call { i64, ptr } @_ZNKSt7__cxx1112basic_stringIcSt11char_traitsIcESaIcEEcvSt17basic_string_viewIcS2_EEv(ptr noundef nonnull align 8 dereferenceable(32) %15) #3
  %17 = getelementptr inbounds { i64, ptr }, ptr %3, i32 0, i32 0
  %18 = extractvalue { i64, ptr } %16, 0
  store i64 %18, ptr %17, align 8
  %19 = getelementptr inbounds { i64, ptr }, ptr %3, i32 0, i32 1
  %20 = extractvalue { i64, ptr } %16, 1
  store ptr %20, ptr %19, align 8
  call void @llvm.memcpy.p0.p0.i64(ptr align 8 %4, ptr align 8 %3, i64 16, i1 false)
  %21 = call { i64, ptr } @_ZN2cmli2_sEPKcm(ptr noundef @.str.11, i64 noundef 19)
  %22 = getelementptr inbounds %"class.cm::static_string_view", ptr %6, i32 0, i32 0
  %23 = getelementptr inbounds { i64, ptr }, ptr %22, i32 0, i32 0
  %24 = extractvalue { i64, ptr } %21, 0
  store i64 %24, ptr %23, align 8
  %25 = getelementptr inbounds { i64, ptr }, ptr %22, i32 0, i32 1
  %26 = extractvalue { i64, ptr } %21, 1
  store ptr %26, ptr %25, align 8
  call void @llvm.memcpy.p0.p0.i64(ptr align 8 %5, ptr align 8 %6, i64 16, i1 false)
  %27 = getelementptr inbounds { i64, ptr }, ptr %4, i32 0, i32 0
  %28 = load i64, ptr %27, align 8
  %29 = getelementptr inbounds { i64, ptr }, ptr %4, i32 0, i32 1
  %30 = load ptr, ptr %29, align 8
  %31 = getelementptr inbounds { i64, ptr }, ptr %5, i32 0, i32 0
  %32 = load i64, ptr %31, align 8
  %33 = getelementptr inbounds { i64, ptr }, ptr %5, i32 0, i32 1
  %34 = load ptr, ptr %33, align 8
  %35 = call noundef zeroext i1 @_ZSteqIcSt11char_traitsIcEEbSt17basic_string_viewIT_T0_ES5_(i64 %28, ptr %30, i64 %32, ptr %34) #3
  br i1 %35, label %68, label %36

36:                                               ; preds = %1
  call void @llvm.memcpy.p0.p0.i64(ptr align 8 %7, ptr align 8 %3, i64 16, i1 false)
  %37 = call { i64, ptr } @_ZN2cmli2_sEPKcm(ptr noundef @.str.12, i64 noundef 19)
  %38 = getelementptr inbounds %"class.cm::static_string_view", ptr %9, i32 0, i32 0
  %39 = getelementptr inbounds { i64, ptr }, ptr %38, i32 0, i32 0
  %40 = extractvalue { i64, ptr } %37, 0
  store i64 %40, ptr %39, align 8
  %41 = getelementptr inbounds { i64, ptr }, ptr %38, i32 0, i32 1
  %42 = extractvalue { i64, ptr } %37, 1
  store ptr %42, ptr %41, align 8
  call void @llvm.memcpy.p0.p0.i64(ptr align 8 %8, ptr align 8 %9, i64 16, i1 false)
  %43 = getelementptr inbounds { i64, ptr }, ptr %7, i32 0, i32 0
  %44 = load i64, ptr %43, align 8
  %45 = getelementptr inbounds { i64, ptr }, ptr %7, i32 0, i32 1
  %46 = load ptr, ptr %45, align 8
  %47 = getelementptr inbounds { i64, ptr }, ptr %8, i32 0, i32 0
  %48 = load i64, ptr %47, align 8
  %49 = getelementptr inbounds { i64, ptr }, ptr %8, i32 0, i32 1
  %50 = load ptr, ptr %49, align 8
  %51 = call noundef zeroext i1 @_ZSteqIcSt11char_traitsIcEEbSt17basic_string_viewIT_T0_ES5_(i64 %44, ptr %46, i64 %48, ptr %50) #3
  br i1 %51, label %68, label %52

52:                                               ; preds = %36
  call void @llvm.memcpy.p0.p0.i64(ptr align 8 %10, ptr align 8 %3, i64 16, i1 false)
  %53 = call { i64, ptr } @_ZN2cmli2_sEPKcm(ptr noundef @.str.13, i64 noundef 15)
  %54 = getelementptr inbounds %"class.cm::static_string_view", ptr %12, i32 0, i32 0
  %55 = getelementptr inbounds { i64, ptr }, ptr %54, i32 0, i32 0
  %56 = extractvalue { i64, ptr } %53, 0
  store i64 %56, ptr %55, align 8
  %57 = getelementptr inbounds { i64, ptr }, ptr %54, i32 0, i32 1
  %58 = extractvalue { i64, ptr } %53, 1
  store ptr %58, ptr %57, align 8
  call void @llvm.memcpy.p0.p0.i64(ptr align 8 %11, ptr align 8 %12, i64 16, i1 false)
  %59 = getelementptr inbounds { i64, ptr }, ptr %10, i32 0, i32 0
  %60 = load i64, ptr %59, align 8
  %61 = getelementptr inbounds { i64, ptr }, ptr %10, i32 0, i32 1
  %62 = load ptr, ptr %61, align 8
  %63 = getelementptr inbounds { i64, ptr }, ptr %11, i32 0, i32 0
  %64 = load i64, ptr %63, align 8
  %65 = getelementptr inbounds { i64, ptr }, ptr %11, i32 0, i32 1
  %66 = load ptr, ptr %65, align 8
  %67 = call noundef zeroext i1 @_ZSteqIcSt11char_traitsIcEEbSt17basic_string_viewIT_T0_ES5_(i64 %60, ptr %62, i64 %64, ptr %66) #3
  br label %68

68:                                               ; preds = %52, %36, %1
  %69 = phi i1 [ true, %36 ], [ true, %1 ], [ %67, %52 ]
  ret i1 %69
}