; Function Attrs: mustprogress nounwind uwtable
define dso_local noundef zeroext i1 @_ZNK31cmGeneratorExpressionDAGChecker27EvaluatingCompileExpressionEv(ptr noundef nonnull align 8 dereferenceable(126) %0) local_unnamed_addr #4 align 2 personality ptr @__gxx_personality_v0 {
  br label %2

2:                                                ; preds = %2, %1
  %.05.i = phi ptr [ %0, %1 ], [ %.0.i, %2 ]
  %.0.i = load ptr, ptr %.05.i, align 8
  %.not.i = icmp eq ptr %.0.i, null
  br i1 %.not.i, label %_ZNK31cmGeneratorExpressionDAGChecker3TopEv.exit, label %2, !llvm.loop !5

_ZNK31cmGeneratorExpressionDAGChecker3TopEv.exit: ; preds = %2
  %3 = getelementptr inbounds nuw i8, ptr %.05.i, i64 16
  %4 = tail call { i64, ptr } @_ZNKSt7__cxx1112basic_stringIcSt11char_traitsIcESaIcEEcvSt17basic_string_viewIcS2_EEv(ptr noundef nonnull align 8 dereferenceable(32) %3) #19
  %5 = extractvalue { i64, ptr } %4, 0
  %6 = extractvalue { i64, ptr } %4, 1
  switch i64 %5, label %_ZSteqIcSt11char_traitsIcEEbSt17basic_string_viewIT_T0_ES5_.exit [
    i64 19, label %_ZNSt11char_traitsIcE7compareEPKcS2_m.exit.i.i
    i64 15, label %_ZNSt11char_traitsIcE7compareEPKcS2_m.exit.i.i24
  ]

_ZNSt11char_traitsIcE7compareEPKcS2_m.exit.i.i:   ; preds = %_ZNK31cmGeneratorExpressionDAGChecker3TopEv.exit
  %bcmp.i = tail call i32 @bcmp(ptr noundef nonnull dereferenceable(19) %6, ptr noundef nonnull dereferenceable(19) @.str.11, i64 19)
  %7 = icmp eq i32 %bcmp.i, 0
  br i1 %7, label %_ZSteqIcSt11char_traitsIcEEbSt17basic_string_viewIT_T0_ES5_.exit, label %_ZNSt11char_traitsIcE7compareEPKcS2_m.exit.i.i20

_ZNSt11char_traitsIcE7compareEPKcS2_m.exit.i.i20: ; preds = %_ZNSt11char_traitsIcE7compareEPKcS2_m.exit.i.i
  %bcmp.i21 = tail call i32 @bcmp(ptr noundef nonnull dereferenceable(19) %6, ptr noundef nonnull dereferenceable(19) @.str.12, i64 19)
  %8 = icmp eq i32 %bcmp.i21, 0
  br label %_ZSteqIcSt11char_traitsIcEEbSt17basic_string_viewIT_T0_ES5_.exit

_ZNSt11char_traitsIcE7compareEPKcS2_m.exit.i.i24: ; preds = %_ZNK31cmGeneratorExpressionDAGChecker3TopEv.exit
  %bcmp.i25 = tail call i32 @bcmp(ptr noundef nonnull dereferenceable(15) %6, ptr noundef nonnull dereferenceable(15) @.str.13, i64 15)
  %9 = icmp eq i32 %bcmp.i25, 0
  br label %_ZSteqIcSt11char_traitsIcEEbSt17basic_string_viewIT_T0_ES5_.exit

_ZSteqIcSt11char_traitsIcEEbSt17basic_string_viewIT_T0_ES5_.exit: ; preds = %_ZNSt11char_traitsIcE7compareEPKcS2_m.exit.i.i24, %_ZNSt11char_traitsIcE7compareEPKcS2_m.exit.i.i20, %_ZNK31cmGeneratorExpressionDAGChecker3TopEv.exit, %_ZNSt11char_traitsIcE7compareEPKcS2_m.exit.i.i
  %10 = phi i1 [ true, %_ZNSt11char_traitsIcE7compareEPKcS2_m.exit.i.i ], [ %8, %_ZNSt11char_traitsIcE7compareEPKcS2_m.exit.i.i20 ], [ false, %_ZNK31cmGeneratorExpressionDAGChecker3TopEv.exit ], [ %9, %_ZNSt11char_traitsIcE7compareEPKcS2_m.exit.i.i24 ]
  ret i1 %10
}